target datalayout = "e-m:e-p270:32:32-p271:32:32-p272:64:64-i64:64-i128:128-f80:128-n8:16:32:64-S128"
target triple = "x86_64-pc-linux-gnu"

%struct.SDL_Rect = type { i32, i32, i32, i32 }
%struct.SDL_VideoData = type { ptr, ptr, i32, ptr, i64, i32, ptr, i32, i64, i64, %struct.X11_ClipboardData, %struct.X11_ClipboardData, ptr, i64, %struct.X11_SettingsData, i8, %struct.anon.1, [256 x i32], i8, i8, i8, i64, i8, %struct.SDL_Point, i32, ptr, i32, i8, i32, %struct.anon.2, i8, i64, ptr, ptr, i8, i8, i8 }
%struct.X11_ClipboardData = type { ptr, ptr, ptr, i64, i32 }
%struct.X11_SettingsData = type { ptr }
%struct.anon.1 = type { i64, i64, i64, i64, i64, i64, i64, i64, i64, i64, i64, i64, i64, i64, i64, i64, i64, i64, i64, i64, i64, i64, i64, i64, i64, i64, i64, i64, i64, i64, i64, i64, i64, i64, i64, i64, i64, i64, i64, i64, i64, i64, i64, i64, i64, i64, i64, i64, i64, i64, i64, i64, i64 }
%struct.SDL_Point = type { i32, i32 }
%struct.anon.2 = type { ptr, i32, i32, i32, i16, i32, i32 }
%struct.SDL_Window = type { i32, ptr, ptr, i32, i32, i32, i32, i32, i32, i32, i32, float, float, i32, i32, i64, i64, float, i8, i8, i32, i32, %struct.SDL_Rect, %struct.SDL_Rect, %struct.SDL_Rect, i8, i8, i8, %struct.SDL_DisplayMode, %struct.SDL_DisplayMode, %struct.SDL_HDROutputProperties, float, ptr, i8, i8, i8, i8, i8, i8, i8, i8, i8, i32, i32, i32, i32, %struct.SDL_Rect, i32, i8, %struct.SDL_Rect, i32, %struct.SDL_Rect, ptr, ptr, i32, float, i32, i32, ptr, ptr, ptr, ptr, ptr, ptr, ptr, ptr, ptr }
%struct.SDL_DisplayMode = type { i32, i32, i32, i32, float, float, i32, i32, ptr }
%struct.SDL_HDROutputProperties = type { float, float }
%struct.SDL_WindowData = type { ptr, i64, ptr, i64, i8, %struct.XShmSegmentInfo, ptr, ptr, ptr, i8, i32, i32, i32, i32, i8, i8, i8, i64, i32, i64, i8, %struct.SDL_Point, %struct.XConfigureEvent, %struct.XConfigureEvent, ptr, i64, i64, i64, i8, i64, ptr, i8, [4 x i64], %struct.SDL_Rect, i64, %struct._XSyncValue, i8, %struct.SDL_Rect, %struct.SDL_DisplayMode, i32, i32, i8, i8, i8, i8, i8, i8, i8, i8, i32, %struct.XPoint, ptr, ptr, i32, i32, i8 }
%struct.XShmSegmentInfo = type { i64, i32, ptr, i32 }
%struct.XConfigureEvent = type { i32, i64, i32, ptr, i64, i64, i32, i32, i32, i32, i32, i64, i32 }
%struct._XSyncValue = type { i32, i32 }
%struct.XPoint = type { i16, i16 }

@X11_XDestroyWindow = external global ptr, align 8
@X11_XFlush = external global ptr, align 8
@X11_XDestroyIC = external global ptr, align 8

; Function Attrs: nounwind uwtable
define hidden void @X11_DestroyWindow(ptr noundef %0, ptr noundef %1) #0 {
  %3 = alloca ptr, align 8
  %4 = alloca ptr, align 8
  %5 = alloca ptr, align 8
  %6 = alloca ptr, align 8
  %7 = alloca ptr, align 8
  %8 = alloca i32, align 4
  %9 = alloca ptr, align 8
  %10 = alloca i32, align 4
  store ptr %0, ptr %3, align 8
  store ptr %1, ptr %4, align 8
  call void @llvm.lifetime.start.p0(i64 8, ptr %5) #7
  %11 = load ptr, ptr %4, align 8
  %12 = getelementptr inbounds nuw %struct.SDL_Window, ptr %11, i32 0, i32 59
  %13 = load ptr, ptr %12, align 8
  store ptr %13, ptr %5, align 8
  %14 = load ptr, ptr %5, align 8
  %15 = icmp ne ptr %14, null
  br i1 %15, label %16, label %122

16:                                               ; preds = %2
  call void @llvm.lifetime.start.p0(i64 8, ptr %6) #7
  %17 = load ptr, ptr %5, align 8
  %18 = getelementptr inbounds nuw %struct.SDL_WindowData, ptr %17, i32 0, i32 24
  %19 = load ptr, ptr %18, align 8
  store ptr %19, ptr %6, align 8
  call void @llvm.lifetime.start.p0(i64 8, ptr %7) #7
  %20 = load ptr, ptr %6, align 8
  %21 = getelementptr inbounds nuw %struct.SDL_VideoData, ptr %20, i32 0, i32 0
  %22 = load ptr, ptr %21, align 8
  store ptr %22, ptr %7, align 8
  call void @llvm.lifetime.start.p0(i64 4, ptr %8) #7
  %23 = load ptr, ptr %6, align 8
  %24 = getelementptr inbounds nuw %struct.SDL_VideoData, ptr %23, i32 0, i32 5
  %25 = load i32, ptr %24, align 8
  store i32 %25, ptr %8, align 4
  call void @llvm.lifetime.start.p0(i64 8, ptr %9) #7
  %26 = load ptr, ptr %6, align 8
  %27 = getelementptr inbounds nuw %struct.SDL_VideoData, ptr %26, i32 0, i32 6
  %28 = load ptr, ptr %27, align 8
  store ptr %28, ptr %9, align 8
  call void @llvm.lifetime.start.p0(i64 4, ptr %10) #7
  %29 = load ptr, ptr %9, align 8
  %30 = icmp ne ptr %29, null
  br i1 %30, label %31, label %78

31:                                               ; preds = %16
  store i32 0, ptr %10, align 4
  br label %32

32:                                               ; preds = %74, %31
  %33 = load i32, ptr %10, align 4
  %34 = load i32, ptr %8, align 4
  %35 = icmp slt i32 %33, %34
  br i1 %35, label %36, label %77

36:                                               ; preds = %32
  %37 = load ptr, ptr %9, align 8
  %38 = load i32, ptr %10, align 4
  %39 = sext i32 %38 to i64
  %40 = getelementptr inbounds ptr, ptr %37, i64 %39
  %41 = load ptr, ptr %40, align 8
  %42 = icmp ne ptr %41, null
  br i1 %42, label %43, label %73

43:                                               ; preds = %36
  %44 = load ptr, ptr %9, align 8
  %45 = load i32, ptr %10, align 4
  %46 = sext i32 %45 to i64
  %47 = getelementptr inbounds ptr, ptr %44, i64 %46
  %48 = load ptr, ptr %47, align 8
  %49 = getelementptr inbounds nuw %struct.SDL_WindowData, ptr %48, i32 0, i32 0
  %50 = load ptr, ptr %49, align 8
  %51 = load ptr, ptr %4, align 8
  %52 = icmp eq ptr %50, %51
  br i1 %52, label %53, label %73

53:                                               ; preds = %43
  %54 = load ptr, ptr %9, align 8
  %55 = load i32, ptr %8, align 4
  %56 = sub nsw i32 %55, 1
  %57 = sext i32 %56 to i64
  %58 = getelementptr inbounds ptr, ptr %54, i64 %57
  %59 = load ptr, ptr %58, align 8
  %60 = load ptr, ptr %9, align 8
  %61 = load i32, ptr %10, align 4
  %62 = sext i32 %61 to i64
  %63 = getelementptr inbounds ptr, ptr %60, i64 %62
  store ptr %59, ptr %63, align 8
  %64 = load ptr, ptr %9, align 8
  %65 = load i32, ptr %8, align 4
  %66 = sub nsw i32 %65, 1
  %67 = sext i32 %66 to i64
  %68 = getelementptr inbounds ptr, ptr %64, i64 %67
  store ptr null, ptr %68, align 8
  %69 = load ptr, ptr %6, align 8
  %70 = getelementptr inbounds nuw %struct.SDL_VideoData, ptr %69, i32 0, i32 5
  %71 = load i32, ptr %70, align 8
  %72 = add nsw i32 %71, -1
  store i32 %72, ptr %70, align 8
  br label %77

73:                                               ; preds = %43, %36
  br label %74

74:                                               ; preds = %73
  %75 = load i32, ptr %10, align 4
  %76 = add nsw i32 %75, 1
  store i32 %76, ptr %10, align 4
  br label %32, !llvm.loop !19

77:                                               ; preds = %53, %32
  br label %78

78:                                               ; preds = %77, %16
  %79 = load ptr, ptr %5, align 8
  %80 = getelementptr inbounds nuw %struct.SDL_WindowData, ptr %79, i32 0, i32 8
  %81 = load ptr, ptr %80, align 8
  %82 = icmp ne ptr %81, null
  br i1 %82, label %83, label %94

83:                                               ; preds = %78
  %84 = load ptr, ptr @X11_XDestroyIC, align 8
  %85 = load ptr, ptr %5, align 8
  %86 = getelementptr inbounds nuw %struct.SDL_WindowData, ptr %85, i32 0, i32 8
  %87 = load ptr, ptr %86, align 8
  call void %84(ptr noundef %87)
  %88 = load ptr, ptr %5, align 8
  %89 = getelementptr inbounds nuw %struct.SDL_WindowData, ptr %88, i32 0, i32 51
  %90 = load ptr, ptr %89, align 8
  call void @SDL_free_REAL(ptr noundef %90)
  %91 = load ptr, ptr %5, align 8
  %92 = getelementptr inbounds nuw %struct.SDL_WindowData, ptr %91, i32 0, i32 52
  %93 = load ptr, ptr %92, align 8
  call void @SDL_free_REAL(ptr noundef %93)
  br label %94

94:                                               ; preds = %83, %78
  %95 = load ptr, ptr %4, align 8
  call void @X11_TermResizeSync(ptr noundef %95)
  %96 = load ptr, ptr %4, align 8
  %97 = getelementptr inbounds nuw %struct.SDL_Window, ptr %96, i32 0, i32 15
  %98 = load i64, ptr %97, align 8
  %99 = and i64 %98, 2048
  %100 = icmp ne i64 %99, 0
  br i1 %100, label %111, label %101

101:                                              ; preds = %94
  %102 = load ptr, ptr @X11_XDestroyWindow, align 8
  %103 = load ptr, ptr %7, align 8
  %104 = load ptr, ptr %5, align 8
  %105 = getelementptr inbounds nuw %struct.SDL_WindowData, ptr %104, i32 0, i32 1
  %106 = load i64, ptr %105, align 8
  %107 = call i32 %102(ptr noundef %103, i64 noundef %106)
  %108 = load ptr, ptr @X11_XFlush, align 8
  %109 = load ptr, ptr %7, align 8
  %110 = call i32 %108(ptr noundef %109)
  br label %111

111:                                              ; preds = %101, %94
  %112 = load ptr, ptr %5, align 8
  call void @SDL_free_REAL(ptr noundef %112)
  %113 = load ptr, ptr %6, align 8
  %114 = getelementptr inbounds nuw %struct.SDL_VideoData, ptr %113, i32 0, i32 12
  %115 = load ptr, ptr %114, align 8
  %116 = load ptr, ptr %4, align 8
  %117 = icmp eq ptr %115, %116
  br i1 %117, label %118, label %121

118:                                              ; preds = %111
  %119 = load ptr, ptr %3, align 8
  %120 = load ptr, ptr %4, align 8
  call void @X11_DestroyPointerBarrier(ptr noundef %119, ptr noundef %120)
  br label %121

121:                                              ; preds = %118, %111
  call void @llvm.lifetime.end.p0(i64 4, ptr %10) #7
  call void @llvm.lifetime.end.p0(i64 8, ptr %9) #7
  call void @llvm.lifetime.end.p0(i64 4, ptr %8) #7
  call void @llvm.lifetime.end.p0(i64 8, ptr %7) #7
  call void @llvm.lifetime.end.p0(i64 8, ptr %6) #7
  br label %122

122:                                              ; preds = %121, %2
  %123 = load ptr, ptr %4, align 8
  %124 = getelementptr inbounds nuw %struct.SDL_Window, ptr %123, i32 0, i32 59
  store ptr null, ptr %124, align 8
  call void @llvm.lifetime.end.p0(i64 8, ptr %5) #7
  ret void
}