; Function Attrs: nounwind uwtable
define hidden void @X11_DestroyWindow(ptr noundef %0, ptr noundef %1) local_unnamed_addr #0 {
  %3 = getelementptr inbounds nuw i8, ptr %1, i64 392
  %4 = load ptr, ptr %3, align 8
  %.not = icmp eq ptr %4, null
  br i1 %.not, label %51, label %5

5:                                                ; preds = %2
  %6 = getelementptr inbounds nuw i8, ptr %4, i64 336
  %7 = load ptr, ptr %6, align 8
  %8 = load ptr, ptr %7, align 8
  %9 = getelementptr inbounds nuw i8, ptr %7, i64 40
  %10 = load i32, ptr %9, align 8
  %11 = getelementptr inbounds nuw i8, ptr %7, i64 48
  %12 = load ptr, ptr %11, align 8
  %.not42 = icmp ne ptr %12, null
  %13 = icmp sgt i32 %10, 0
  %or.cond = select i1 %.not42, i1 %13, i1 false
  br i1 %or.cond, label %.lr.ph.preheader, label %.loopexit

.lr.ph.preheader:                                 ; preds = %5
  %wide.trip.count = zext nneg i32 %10 to i64
  br label %.lr.ph

.lr.ph:                                           ; preds = %.lr.ph.preheader, %26
  %indvars.iv = phi i64 [ 0, %.lr.ph.preheader ], [ %indvars.iv.next, %26 ]
  %14 = getelementptr inbounds nuw ptr, ptr %12, i64 %indvars.iv
  %15 = load ptr, ptr %14, align 8
  %.not43 = icmp eq ptr %15, null
  br i1 %.not43, label %26, label %16

16:                                               ; preds = %.lr.ph
  %17 = load ptr, ptr %15, align 8
  %18 = icmp eq ptr %17, %1
  br i1 %18, label %19, label %26

19:                                               ; preds = %16
  %20 = getelementptr inbounds nuw ptr, ptr %12, i64 %indvars.iv
  %21 = getelementptr ptr, ptr %12, i64 %wide.trip.count
  %22 = getelementptr i8, ptr %21, i64 -8
  %23 = load ptr, ptr %22, align 8
  store ptr %23, ptr %20, align 8
  store ptr null, ptr %22, align 8
  %24 = load i32, ptr %9, align 8
  %25 = add nsw i32 %24, -1
  store i32 %25, ptr %9, align 8
  br label %.loopexit

26:                                               ; preds = %.lr.ph, %16
  %indvars.iv.next = add nuw nsw i64 %indvars.iv, 1
  %exitcond.not = icmp eq i64 %indvars.iv.next, %wide.trip.count
  br i1 %exitcond.not, label %.loopexit, label %.lr.ph, !llvm.loop !20

.loopexit:                                        ; preds = %26, %19, %5
  %27 = getelementptr inbounds nuw i8, ptr %4, i64 88
  %28 = load ptr, ptr %27, align 8
  %.not44 = icmp eq ptr %28, null
  br i1 %.not44, label %35, label %29

29:                                               ; preds = %.loopexit
  %30 = load ptr, ptr @X11_XDestroyIC, align 8
  tail call void %30(ptr noundef nonnull %28) #12
  %31 = getelementptr inbounds nuw i8, ptr %4, i64 552
  %32 = load ptr, ptr %31, align 8
  tail call void @SDL_free_REAL(ptr noundef %32) #12
  %33 = getelementptr inbounds nuw i8, ptr %4, i64 560
  %34 = load ptr, ptr %33, align 8
  tail call void @SDL_free_REAL(ptr noundef %34) #12
  br label %35

35:                                               ; preds = %29, %.loopexit
  tail call void @X11_TermResizeSync(ptr noundef %1) #12
  %36 = getelementptr inbounds nuw i8, ptr %1, i64 72
  %37 = load i64, ptr %36, align 8
  %38 = and i64 %37, 2048
  %.not45 = icmp eq i64 %38, 0
  br i1 %.not45, label %39, label %46

39:                                               ; preds = %35
  %40 = load ptr, ptr @X11_XDestroyWindow, align 8
  %41 = getelementptr inbounds nuw i8, ptr %4, i64 8
  %42 = load i64, ptr %41, align 8
  %43 = tail call i32 %40(ptr noundef %8, i64 noundef %42) #12
  %44 = load ptr, ptr @X11_XFlush, align 8
  %45 = tail call i32 %44(ptr noundef %8) #12
  br label %46

46:                                               ; preds = %39, %35
  tail call void @SDL_free_REAL(ptr noundef nonnull %4) #12
  %47 = getelementptr inbounds nuw i8, ptr %7, i64 160
  %48 = load ptr, ptr %47, align 8
  %49 = icmp eq ptr %48, %1
  br i1 %49, label %50, label %51

50:                                               ; preds = %46
  tail call void @X11_DestroyPointerBarrier(ptr noundef %0, ptr noundef nonnull %1) #12
  br label %51

51:                                               ; preds = %46, %50, %2
  store ptr null, ptr %3, align 8
  ret void
}